target datalayout = "e-m:e-p270:32:32-p271:32:32-p272:64:64-i64:64-i128:128-f80:128-n8:16:32:64-S128"
target triple = "x86_64-pc-linux-gnu"

%"class.zxing::qrcode::FinderPattern" = type { %"class.zxing::ResultPoint.base", float, i32, float, i32, i32 }
%"class.zxing::ResultPoint.base" = type { %"class.zxing::Counted.base", float, float }
%"class.zxing::Counted.base" = type <{ ptr, i32 }>

; Function Attrs: mustprogress nounwind uwtable
define hidden void @_ZN5zxing6qrcode13FinderPattern23setHorizontalCheckStateEi(ptr noundef nonnull align 8 dereferenceable(40) %0, i32 noundef %1) #2 align 2 {
  %3 = alloca ptr, align 8
  %4 = alloca i32, align 4
  store ptr %0, ptr %3, align 8, !tbaa !3
  store i32 %1, ptr %4, align 4, !tbaa !22
  %5 = load ptr, ptr %3, align 8
  %6 = load i32, ptr %4, align 4, !tbaa !22
  switch i32 %6, label %13 [
    i32 0, label %7
    i32 1, label %9
    i32 2, label %11
  ]

7:                                                ; preds = %2
  %8 = getelementptr inbounds nuw %"class.zxing::qrcode::FinderPattern", ptr %5, i32 0, i32 4
  store i32 0, ptr %8, align 8, !tbaa !19
  br label %13

9:                                                ; preds = %2
  %10 = getelementptr inbounds nuw %"class.zxing::qrcode::FinderPattern", ptr %5, i32 0, i32 4
  store i32 1, ptr %10, align 8, !tbaa !19
  br label %13

11:                                               ; preds = %2
  %12 = getelementptr inbounds nuw %"class.zxing::qrcode::FinderPattern", ptr %5, i32 0, i32 4
  store i32 2, ptr %12, align 8, !tbaa !19
  br label %13

13:                                               ; preds = %2, %11, %9, %7
  ret void
}