; Function Attrs: mustprogress nofree norecurse nosync nounwind willreturn memory(argmem: write) uwtable
define hidden void @_ZN5zxing6qrcode13FinderPattern23setHorizontalCheckStateEi(ptr noundef nonnull writeonly align 8 captures(none) dereferenceable(40) %0, i32 noundef %1) local_unnamed_addr #7 align 2 {
  %switch = icmp ult i32 %1, 3
  br i1 %switch, label %.sink.split, label %4

.sink.split:                                      ; preds = %2
  %3 = getelementptr inbounds nuw i8, ptr %0, i64 32
  store i32 %1, ptr %3, align 8, !tbaa !15
  br label %4

4:                                                ; preds = %2, %.sink.split
  ret void
}